target datalayout = "e-m:e-p270:32:32-p271:32:32-p272:64:64-i64:64-i128:128-f80:128-n8:16:32:64-S128"
target triple = "x86_64-pc-linux-gnu"

%struct.pull_varnos_context = type { ptr, ptr, i32 }
%struct.Node = type { i32 }
%struct.Var = type { %struct.Expr, i32, i16, i32, i32, i32, ptr, i32, i32, i32, i16, i32 }
%struct.Expr = type { i32 }
%struct.CurrentOfExpr = type { %struct.Expr, i32, ptr, i32 }
%struct.PlaceHolderVar = type { %struct.Expr, ptr, ptr, ptr, i32, i32 }
%struct.PlannerInfo = type { i32, ptr, ptr, i32, ptr, ptr, ptr, ptr, i32, ptr, ptr, ptr, ptr, ptr, ptr, ptr, ptr, i32, ptr, ptr, ptr, ptr, ptr, i8, ptr, ptr, ptr, ptr, ptr, i32, ptr, ptr, ptr, ptr, ptr, ptr, ptr, i32, ptr, ptr, ptr, i32, ptr, ptr, ptr, ptr, ptr, ptr, [8 x ptr], [8 x ptr], ptr, ptr, ptr, ptr, ptr, ptr, ptr, double, double, double, i32, i8, i8, i8, i8, i8, i8, i8, i32, ptr, ptr, i32, i8, i8, i32, ptr, ptr, ptr, ptr, ptr, ptr, i8, ptr }
%struct.PlaceHolderInfo = type { i32, i32, ptr, ptr, ptr, ptr, i32 }

; Function Attrs: nounwind uwtable
define internal zeroext i1 @pull_varnos_walker(ptr noundef %0, ptr noundef %1) #0 {
  %3 = alloca i1, align 1
  %4 = alloca ptr, align 8
  %5 = alloca ptr, align 8
  %6 = alloca ptr, align 8
  %7 = alloca ptr, align 8
  %8 = alloca ptr, align 8
  %9 = alloca ptr, align 8
  %10 = alloca ptr, align 8
  %11 = alloca ptr, align 8
  %12 = alloca i32, align 4
  %13 = alloca i8, align 1
  store ptr %0, ptr %4, align 8
  store ptr %1, ptr %5, align 8
  %14 = load ptr, ptr %4, align 8
  %15 = icmp eq ptr %14, null
  br i1 %15, label %16, label %17

16:                                               ; preds = %2
  store i1 false, ptr %3, align 1
  br label %234

17:                                               ; preds = %2
  %18 = load ptr, ptr %4, align 8
  %19 = getelementptr inbounds nuw %struct.Node, ptr %18, i32 0, i32 0
  %20 = load i32, ptr %19, align 4
  %21 = icmp eq i32 %20, 6
  br i1 %21, label %22, label %51

22:                                               ; preds = %17
  call void @llvm.lifetime.start.p0(i64 8, ptr %6) #6
  %23 = load ptr, ptr %4, align 8
  store ptr %23, ptr %6, align 8
  %24 = load ptr, ptr %6, align 8
  %25 = getelementptr inbounds nuw %struct.Var, ptr %24, i32 0, i32 7
  %26 = load i32, ptr %25, align 8
  %27 = load ptr, ptr %5, align 8
  %28 = getelementptr inbounds nuw %struct.pull_varnos_context, ptr %27, i32 0, i32 2
  %29 = load i32, ptr %28, align 8
  %30 = icmp eq i32 %26, %29
  br i1 %30, label %31, label %50

31:                                               ; preds = %22
  %32 = load ptr, ptr %5, align 8
  %33 = getelementptr inbounds nuw %struct.pull_varnos_context, ptr %32, i32 0, i32 0
  %34 = load ptr, ptr %33, align 8
  %35 = load ptr, ptr %6, align 8
  %36 = getelementptr inbounds nuw %struct.Var, ptr %35, i32 0, i32 1
  %37 = load i32, ptr %36, align 4
  %38 = call ptr @bms_add_member(ptr noundef %34, i32 noundef %37)
  %39 = load ptr, ptr %5, align 8
  %40 = getelementptr inbounds nuw %struct.pull_varnos_context, ptr %39, i32 0, i32 0
  store ptr %38, ptr %40, align 8
  %41 = load ptr, ptr %5, align 8
  %42 = getelementptr inbounds nuw %struct.pull_varnos_context, ptr %41, i32 0, i32 0
  %43 = load ptr, ptr %42, align 8
  %44 = load ptr, ptr %6, align 8
  %45 = getelementptr inbounds nuw %struct.Var, ptr %44, i32 0, i32 6
  %46 = load ptr, ptr %45, align 8
  %47 = call ptr @bms_add_members(ptr noundef %43, ptr noundef %46)
  %48 = load ptr, ptr %5, align 8
  %49 = getelementptr inbounds nuw %struct.pull_varnos_context, ptr %48, i32 0, i32 0
  store ptr %47, ptr %49, align 8
  br label %50

50:                                               ; preds = %31, %22
  store i1 false, ptr %3, align 1
  call void @llvm.lifetime.end.p0(i64 8, ptr %6) #6
  br label %234

51:                                               ; preds = %17
  %52 = load ptr, ptr %4, align 8
  %53 = getelementptr inbounds nuw %struct.Node, ptr %52, i32 0, i32 0
  %54 = load i32, ptr %53, align 4
  %55 = icmp eq i32 %54, 58
  br i1 %55, label %56, label %73

56:                                               ; preds = %51
  call void @llvm.lifetime.start.p0(i64 8, ptr %7) #6
  %57 = load ptr, ptr %4, align 8
  store ptr %57, ptr %7, align 8
  %58 = load ptr, ptr %5, align 8
  %59 = getelementptr inbounds nuw %struct.pull_varnos_context, ptr %58, i32 0, i32 2
  %60 = load i32, ptr %59, align 8
  %61 = icmp eq i32 %60, 0
  br i1 %61, label %62, label %72

62:                                               ; preds = %56
  %63 = load ptr, ptr %5, align 8
  %64 = getelementptr inbounds nuw %struct.pull_varnos_context, ptr %63, i32 0, i32 0
  %65 = load ptr, ptr %64, align 8
  %66 = load ptr, ptr %7, align 8
  %67 = getelementptr inbounds nuw %struct.CurrentOfExpr, ptr %66, i32 0, i32 1
  %68 = load i32, ptr %67, align 4
  %69 = call ptr @bms_add_member(ptr noundef %65, i32 noundef %68)
  %70 = load ptr, ptr %5, align 8
  %71 = getelementptr inbounds nuw %struct.pull_varnos_context, ptr %70, i32 0, i32 0
  store ptr %69, ptr %71, align 8
  br label %72

72:                                               ; preds = %62, %56
  store i1 false, ptr %3, align 1
  call void @llvm.lifetime.end.p0(i64 8, ptr %7) #6
  br label %234

73:                                               ; preds = %51
  %74 = load ptr, ptr %4, align 8
  %75 = getelementptr inbounds nuw %struct.Node, ptr %74, i32 0, i32 0
  %76 = load i32, ptr %75, align 4
  %77 = icmp eq i32 %76, 318
  br i1 %77, label %78, label %209

78:                                               ; preds = %73
  call void @llvm.lifetime.start.p0(i64 8, ptr %8) #6
  %79 = load ptr, ptr %4, align 8
  store ptr %79, ptr %8, align 8
  %80 = load ptr, ptr %8, align 8
  %81 = getelementptr inbounds nuw %struct.PlaceHolderVar, ptr %80, i32 0, i32 5
  %82 = load i32, ptr %81, align 4
  %83 = load ptr, ptr %5, align 8
  %84 = getelementptr inbounds nuw %struct.pull_varnos_context, ptr %83, i32 0, i32 2
  %85 = load i32, ptr %84, align 8
  %86 = icmp eq i32 %82, %85
  br i1 %86, label %87, label %205

87:                                               ; preds = %78
  %88 = load ptr, ptr %5, align 8
  %89 = getelementptr inbounds nuw %struct.pull_varnos_context, ptr %88, i32 0, i32 1
  %90 = load ptr, ptr %89, align 8
  %91 = icmp ne ptr %90, null
  br i1 %91, label %92, label %205

92:                                               ; preds = %87
  call void @llvm.lifetime.start.p0(i64 8, ptr %9) #6
  store ptr null, ptr %9, align 8
  %93 = load ptr, ptr %8, align 8
  %94 = getelementptr inbounds nuw %struct.PlaceHolderVar, ptr %93, i32 0, i32 5
  %95 = load i32, ptr %94, align 4
  %96 = icmp eq i32 %95, 0
  br i1 %96, label %97, label %120

97:                                               ; preds = %92
  %98 = load ptr, ptr %8, align 8
  %99 = getelementptr inbounds nuw %struct.PlaceHolderVar, ptr %98, i32 0, i32 4
  %100 = load i32, ptr %99, align 8
  %101 = load ptr, ptr %5, align 8
  %102 = getelementptr inbounds nuw %struct.pull_varnos_context, ptr %101, i32 0, i32 1
  %103 = load ptr, ptr %102, align 8
  %104 = getelementptr inbounds nuw %struct.PlannerInfo, ptr %103, i32 0, i32 37
  %105 = load i32, ptr %104, align 8
  %106 = icmp ult i32 %100, %105
  br i1 %106, label %107, label %119

107:                                              ; preds = %97
  %108 = load ptr, ptr %5, align 8
  %109 = getelementptr inbounds nuw %struct.pull_varnos_context, ptr %108, i32 0, i32 1
  %110 = load ptr, ptr %109, align 8
  %111 = getelementptr inbounds nuw %struct.PlannerInfo, ptr %110, i32 0, i32 36
  %112 = load ptr, ptr %111, align 8
  %113 = load ptr, ptr %8, align 8
  %114 = getelementptr inbounds nuw %struct.PlaceHolderVar, ptr %113, i32 0, i32 4
  %115 = load i32, ptr %114, align 8
  %116 = zext i32 %115 to i64
  %117 = getelementptr inbounds nuw ptr, ptr %112, i64 %116
  %118 = load ptr, ptr %117, align 8
  store ptr %118, ptr %9, align 8
  br label %119

119:                                              ; preds = %107, %97
  br label %120

120:                                              ; preds = %119, %92
  %121 = load ptr, ptr %9, align 8
  %122 = icmp eq ptr %121, null
  br i1 %122, label %123, label %133

123:                                              ; preds = %120
  %124 = load ptr, ptr %5, align 8
  %125 = getelementptr inbounds nuw %struct.pull_varnos_context, ptr %124, i32 0, i32 0
  %126 = load ptr, ptr %125, align 8
  %127 = load ptr, ptr %8, align 8
  %128 = getelementptr inbounds nuw %struct.PlaceHolderVar, ptr %127, i32 0, i32 2
  %129 = load ptr, ptr %128, align 8
  %130 = call ptr @bms_add_members(ptr noundef %126, ptr noundef %129)
  %131 = load ptr, ptr %5, align 8
  %132 = getelementptr inbounds nuw %struct.pull_varnos_context, ptr %131, i32 0, i32 0
  store ptr %130, ptr %132, align 8
  br label %195

133:                                              ; preds = %120
  %134 = load ptr, ptr %8, align 8
  %135 = getelementptr inbounds nuw %struct.PlaceHolderVar, ptr %134, i32 0, i32 2
  %136 = load ptr, ptr %135, align 8
  %137 = load ptr, ptr %9, align 8
  %138 = getelementptr inbounds nuw %struct.PlaceHolderInfo, ptr %137, i32 0, i32 2
  %139 = load ptr, ptr %138, align 8
  %140 = getelementptr inbounds nuw %struct.PlaceHolderVar, ptr %139, i32 0, i32 2
  %141 = load ptr, ptr %140, align 8
  %142 = call zeroext i1 @bms_equal(ptr noundef %136, ptr noundef %141)
  br i1 %142, label %143, label %153

143:                                              ; preds = %133
  %144 = load ptr, ptr %5, align 8
  %145 = getelementptr inbounds nuw %struct.pull_varnos_context, ptr %144, i32 0, i32 0
  %146 = load ptr, ptr %145, align 8
  %147 = load ptr, ptr %9, align 8
  %148 = getelementptr inbounds nuw %struct.PlaceHolderInfo, ptr %147, i32 0, i32 3
  %149 = load ptr, ptr %148, align 8
  %150 = call ptr @bms_add_members(ptr noundef %146, ptr noundef %149)
  %151 = load ptr, ptr %5, align 8
  %152 = getelementptr inbounds nuw %struct.pull_varnos_context, ptr %151, i32 0, i32 0
  store ptr %150, ptr %152, align 8
  br label %194

153:                                              ; preds = %133
  call void @llvm.lifetime.start.p0(i64 8, ptr %10) #6
  call void @llvm.lifetime.start.p0(i64 8, ptr %11) #6
  %154 = load ptr, ptr %9, align 8
  %155 = getelementptr inbounds nuw %struct.PlaceHolderInfo, ptr %154, i32 0, i32 2
  %156 = load ptr, ptr %155, align 8
  %157 = getelementptr inbounds nuw %struct.PlaceHolderVar, ptr %156, i32 0, i32 2
  %158 = load ptr, ptr %157, align 8
  %159 = load ptr, ptr %8, align 8
  %160 = getelementptr inbounds nuw %struct.PlaceHolderVar, ptr %159, i32 0, i32 2
  %161 = load ptr, ptr %160, align 8
  %162 = call ptr @bms_difference(ptr noundef %158, ptr noundef %161)
  store ptr %162, ptr %11, align 8
  %163 = load ptr, ptr %9, align 8
  %164 = getelementptr inbounds nuw %struct.PlaceHolderInfo, ptr %163, i32 0, i32 3
  %165 = load ptr, ptr %164, align 8
  %166 = load ptr, ptr %11, align 8
  %167 = call ptr @bms_difference(ptr noundef %165, ptr noundef %166)
  store ptr %167, ptr %10, align 8
  %168 = load ptr, ptr %10, align 8
  %169 = load ptr, ptr %9, align 8
  %170 = getelementptr inbounds nuw %struct.PlaceHolderInfo, ptr %169, i32 0, i32 3
  %171 = load ptr, ptr %170, align 8
  %172 = call zeroext i1 @bms_equal(ptr noundef %168, ptr noundef %171)
  br i1 %172, label %186, label %173

173:                                              ; preds = %153
  %174 = load ptr, ptr %8, align 8
  %175 = getelementptr inbounds nuw %struct.PlaceHolderVar, ptr %174, i32 0, i32 2
  %176 = load ptr, ptr %175, align 8
  %177 = load ptr, ptr %9, align 8
  %178 = getelementptr inbounds nuw %struct.PlaceHolderInfo, ptr %177, i32 0, i32 2
  %179 = load ptr, ptr %178, align 8
  %180 = getelementptr inbounds nuw %struct.PlaceHolderVar, ptr %179, i32 0, i32 2
  %181 = load ptr, ptr %180, align 8
  %182 = call ptr @bms_difference(ptr noundef %176, ptr noundef %181)
  store ptr %182, ptr %11, align 8
  %183 = load ptr, ptr %10, align 8
  %184 = load ptr, ptr %11, align 8
  %185 = call ptr @bms_join(ptr noundef %183, ptr noundef %184)
  store ptr %185, ptr %10, align 8
  br label %186

186:                                              ; preds = %173, %153
  %187 = load ptr, ptr %5, align 8
  %188 = getelementptr inbounds nuw %struct.pull_varnos_context, ptr %187, i32 0, i32 0
  %189 = load ptr, ptr %188, align 8
  %190 = load ptr, ptr %10, align 8
  %191 = call ptr @bms_join(ptr noundef %189, ptr noundef %190)
  %192 = load ptr, ptr %5, align 8
  %193 = getelementptr inbounds nuw %struct.pull_varnos_context, ptr %192, i32 0, i32 0
  store ptr %191, ptr %193, align 8
  call void @llvm.lifetime.end.p0(i64 8, ptr %11) #6
  call void @llvm.lifetime.end.p0(i64 8, ptr %10) #6
  br label %194

194:                                              ; preds = %186, %143
  br label %195

195:                                              ; preds = %194, %123
  %196 = load ptr, ptr %5, align 8
  %197 = getelementptr inbounds nuw %struct.pull_varnos_context, ptr %196, i32 0, i32 0
  %198 = load ptr, ptr %197, align 8
  %199 = load ptr, ptr %8, align 8
  %200 = getelementptr inbounds nuw %struct.PlaceHolderVar, ptr %199, i32 0, i32 3
  %201 = load ptr, ptr %200, align 8
  %202 = call ptr @bms_add_members(ptr noundef %198, ptr noundef %201)
  %203 = load ptr, ptr %5, align 8
  %204 = getelementptr inbounds nuw %struct.pull_varnos_context, ptr %203, i32 0, i32 0
  store ptr %202, ptr %204, align 8
  store i1 false, ptr %3, align 1
  store i32 1, ptr %12, align 4
  call void @llvm.lifetime.end.p0(i64 8, ptr %9) #6
  br label %206

205:                                              ; preds = %87, %78
  store i32 0, ptr %12, align 4
  br label %206

206:                                              ; preds = %205, %195
  call void @llvm.lifetime.end.p0(i64 8, ptr %8) #6
  %207 = load i32, ptr %12, align 4
  switch i32 %207, label %236 [
    i32 0, label %208
    i32 1, label %234
  ]

208:                                              ; preds = %206
  br label %230

209:                                              ; preds = %73
  %210 = load ptr, ptr %4, align 8
  %211 = getelementptr inbounds nuw %struct.Node, ptr %210, i32 0, i32 0
  %212 = load i32, ptr %211, align 4
  %213 = icmp eq i32 %212, 67
  br i1 %213, label %214, label %229

214:                                              ; preds = %209
  call void @llvm.lifetime.start.p0(i64 1, ptr %13) #6
  %215 = load ptr, ptr %5, align 8
  %216 = getelementptr inbounds nuw %struct.pull_varnos_context, ptr %215, i32 0, i32 2
  %217 = load i32, ptr %216, align 8
  %218 = add i32 %217, 1
  store i32 %218, ptr %216, align 8
  %219 = load ptr, ptr %4, align 8
  %220 = load ptr, ptr %5, align 8
  %221 = call zeroext i1 @query_tree_walker_impl(ptr noundef %219, ptr noundef @pull_varnos_walker, ptr noundef %220, i32 noundef 0)
  %222 = zext i1 %221 to i8
  store i8 %222, ptr %13, align 1
  %223 = load ptr, ptr %5, align 8
  %224 = getelementptr inbounds nuw %struct.pull_varnos_context, ptr %223, i32 0, i32 2
  %225 = load i32, ptr %224, align 8
  %226 = add i32 %225, -1
  store i32 %226, ptr %224, align 8
  %227 = load i8, ptr %13, align 1, !range !4, !noundef !5
  %228 = trunc i8 %227 to i1
  store i1 %228, ptr %3, align 1
  store i32 1, ptr %12, align 4
  call void @llvm.lifetime.end.p0(i64 1, ptr %13) #6
  br label %234

229:                                              ; preds = %209
  br label %230

230:                                              ; preds = %229, %208
  %231 = load ptr, ptr %4, align 8
  %232 = load ptr, ptr %5, align 8
  %233 = call zeroext i1 @expression_tree_walker_impl(ptr noundef %231, ptr noundef @pull_varnos_walker, ptr noundef %232)
  store i1 %233, ptr %3, align 1
  br label %234

234:                                              ; preds = %230, %214, %206, %72, %50, %16
  %235 = load i1, ptr %3, align 1
  ret i1 %235

236:                                              ; preds = %206
  unreachable
}