; Function Attrs: nounwind uwtable
define internal zeroext i1 @pull_varnos_walker(ptr noundef %0, ptr noundef %1) #0 {
  %3 = icmp eq ptr %0, null
  br i1 %3, label %103, label %4

4:                                                ; preds = %2
  %5 = load i32, ptr %0, align 4
  switch i32 %5, label %.thread71 [
    i32 6, label %6
    i32 58, label %20
    i32 318, label %29
    i32 67, label %95
  ]

6:                                                ; preds = %4
  %7 = getelementptr inbounds nuw i8, ptr %0, i64 32
  %8 = load i32, ptr %7, align 8
  %9 = getelementptr inbounds nuw i8, ptr %1, i64 16
  %10 = load i32, ptr %9, align 8
  %11 = icmp eq i32 %8, %10
  br i1 %11, label %12, label %103

12:                                               ; preds = %6
  %13 = load ptr, ptr %1, align 8
  %14 = getelementptr inbounds nuw i8, ptr %0, i64 4
  %15 = load i32, ptr %14, align 4
  %16 = tail call ptr @bms_add_member(ptr noundef %13, i32 noundef %15) #6
  store ptr %16, ptr %1, align 8
  %17 = getelementptr inbounds nuw i8, ptr %0, i64 24
  %18 = load ptr, ptr %17, align 8
  %19 = tail call ptr @bms_add_members(ptr noundef %16, ptr noundef %18) #6
  store ptr %19, ptr %1, align 8
  br label %103

20:                                               ; preds = %4
  %21 = getelementptr inbounds nuw i8, ptr %1, i64 16
  %22 = load i32, ptr %21, align 8
  %23 = icmp eq i32 %22, 0
  br i1 %23, label %24, label %103

24:                                               ; preds = %20
  %25 = load ptr, ptr %1, align 8
  %26 = getelementptr inbounds nuw i8, ptr %0, i64 4
  %27 = load i32, ptr %26, align 4
  %28 = tail call ptr @bms_add_member(ptr noundef %25, i32 noundef %27) #6
  store ptr %28, ptr %1, align 8
  br label %103

29:                                               ; preds = %4
  %30 = getelementptr inbounds nuw i8, ptr %0, i64 36
  %31 = load i32, ptr %30, align 4
  %32 = getelementptr inbounds nuw i8, ptr %1, i64 16
  %33 = load i32, ptr %32, align 8
  %34 = icmp eq i32 %31, %33
  br i1 %34, label %35, label %.thread71

35:                                               ; preds = %29
  %36 = getelementptr inbounds nuw i8, ptr %1, i64 8
  %37 = load ptr, ptr %36, align 8
  %.not = icmp eq ptr %37, null
  br i1 %.not, label %.thread71, label %38

38:                                               ; preds = %35
  %39 = icmp eq i32 %31, 0
  br i1 %39, label %40, label %.thread

40:                                               ; preds = %38
  %41 = getelementptr inbounds nuw i8, ptr %0, i64 32
  %42 = load i32, ptr %41, align 8
  %43 = getelementptr inbounds nuw i8, ptr %37, i64 296
  %44 = load i32, ptr %43, align 8
  %45 = icmp ult i32 %42, %44
  br i1 %45, label %46, label %.thread

46:                                               ; preds = %40
  %47 = getelementptr inbounds nuw i8, ptr %37, i64 288
  %48 = load ptr, ptr %47, align 8
  %49 = zext i32 %42 to i64
  %50 = getelementptr inbounds nuw ptr, ptr %48, i64 %49
  %51 = load ptr, ptr %50, align 8
  %52 = icmp eq ptr %51, null
  br i1 %52, label %.thread, label %57

.thread:                                          ; preds = %38, %40, %46
  %53 = load ptr, ptr %1, align 8
  %54 = getelementptr inbounds nuw i8, ptr %0, i64 16
  %55 = load ptr, ptr %54, align 8
  %56 = tail call ptr @bms_add_members(ptr noundef %53, ptr noundef %55) #6
  br label %91

57:                                               ; preds = %46
  %58 = getelementptr inbounds nuw i8, ptr %0, i64 16
  %59 = load ptr, ptr %58, align 8
  %60 = getelementptr inbounds nuw i8, ptr %51, i64 8
  %61 = load ptr, ptr %60, align 8
  %62 = getelementptr inbounds nuw i8, ptr %61, i64 16
  %63 = load ptr, ptr %62, align 8
  %64 = tail call zeroext i1 @bms_equal(ptr noundef %59, ptr noundef %63) #6
  br i1 %64, label %65, label %70

65:                                               ; preds = %57
  %66 = load ptr, ptr %1, align 8
  %67 = getelementptr inbounds nuw i8, ptr %51, i64 16
  %68 = load ptr, ptr %67, align 8
  %69 = tail call ptr @bms_add_members(ptr noundef %66, ptr noundef %68) #6
  br label %91

70:                                               ; preds = %57
  %71 = load ptr, ptr %60, align 8
  %72 = getelementptr inbounds nuw i8, ptr %71, i64 16
  %73 = load ptr, ptr %72, align 8
  %74 = load ptr, ptr %58, align 8
  %75 = tail call ptr @bms_difference(ptr noundef %73, ptr noundef %74) #6
  %76 = getelementptr inbounds nuw i8, ptr %51, i64 16
  %77 = load ptr, ptr %76, align 8
  %78 = tail call ptr @bms_difference(ptr noundef %77, ptr noundef %75) #6
  %79 = load ptr, ptr %76, align 8
  %80 = tail call zeroext i1 @bms_equal(ptr noundef %78, ptr noundef %79) #6
  br i1 %80, label %88, label %81

81:                                               ; preds = %70
  %82 = load ptr, ptr %58, align 8
  %83 = load ptr, ptr %60, align 8
  %84 = getelementptr inbounds nuw i8, ptr %83, i64 16
  %85 = load ptr, ptr %84, align 8
  %86 = tail call ptr @bms_difference(ptr noundef %82, ptr noundef %85) #6
  %87 = tail call ptr @bms_join(ptr noundef %78, ptr noundef %86) #6
  br label %88

88:                                               ; preds = %81, %70
  %.062 = phi ptr [ %78, %70 ], [ %87, %81 ]
  %89 = load ptr, ptr %1, align 8
  %90 = tail call ptr @bms_join(ptr noundef %89, ptr noundef %.062) #6
  br label %91

91:                                               ; preds = %.thread, %88, %65
  %.sink = phi ptr [ %56, %.thread ], [ %90, %88 ], [ %69, %65 ]
  store ptr %.sink, ptr %1, align 8
  %92 = getelementptr inbounds nuw i8, ptr %0, i64 24
  %93 = load ptr, ptr %92, align 8
  %94 = tail call ptr @bms_add_members(ptr noundef %.sink, ptr noundef %93) #6
  store ptr %94, ptr %1, align 8
  br label %103

95:                                               ; preds = %4
  %96 = getelementptr inbounds nuw i8, ptr %1, i64 16
  %97 = load i32, ptr %96, align 8
  %98 = add i32 %97, 1
  store i32 %98, ptr %96, align 8
  %99 = tail call zeroext i1 @query_tree_walker_impl(ptr noundef nonnull %0, ptr noundef nonnull @pull_varnos_walker, ptr noundef %1, i32 noundef 0) #6
  %100 = load i32, ptr %96, align 8
  %101 = add i32 %100, -1
  store i32 %101, ptr %96, align 8
  br label %103

.thread71:                                        ; preds = %29, %35, %4
  %102 = tail call zeroext i1 @expression_tree_walker_impl(ptr noundef nonnull %0, ptr noundef nonnull @pull_varnos_walker, ptr noundef %1) #6
  br label %103

103:                                              ; preds = %91, %20, %24, %6, %12, %2, %.thread71, %95
  %.0 = phi i1 [ false, %91 ], [ %102, %.thread71 ], [ %99, %95 ], [ false, %2 ], [ false, %12 ], [ false, %6 ], [ false, %24 ], [ false, %20 ]
  ret i1 %.0
}